target datalayout = "e-m:e-p270:32:32-p271:32:32-p272:64:64-i64:64-i128:128-f80:128-n8:16:32:64-S128"
target triple = "x86_64-unknown-linux-gnu"

%class.rational = type { %class.mpq }
%class.mpq = type { %class.mpz, %class.mpz }
%class.mpz = type { i32, i8, ptr }

@_ZN8rational13g_mpq_managerE = external global ptr, align 8

; Function Attrs: mustprogress uwtable
define linkonce_odr hidden void @_ZN11mpq_managerILb1EE3delEPS0_R3mpq(ptr noundef %m, ptr noundef nonnull align 8 dereferenceable(32) %a) #4 comdat align 2 {
entry:
  %m.addr = alloca ptr, align 8
  %a.addr = alloca ptr, align 8
  store ptr %m, ptr %m.addr, align 8
  store ptr %a, ptr %a.addr, align 8
  %0 = load ptr, ptr %m.addr, align 8
  %1 = load ptr, ptr %a.addr, align 8
  %m_num = getelementptr inbounds %class.mpq, ptr %1, i32 0, i32 0
  call void @_ZN11mpz_managerILb1EE3delEPS0_R3mpz(ptr noundef %0, ptr noundef nonnull align 8 dereferenceable(16) %m_num)
  %2 = load ptr, ptr %m.addr, align 8
  %3 = load ptr, ptr %a.addr, align 8
  %m_den = getelementptr inbounds %class.mpq, ptr %3, i32 0, i32 1
  call void @_ZN11mpz_managerILb1EE3delEPS0_R3mpz(ptr noundef %2, ptr noundef nonnull align 8 dereferenceable(16) %m_den)
  ret void
}

; Function Attrs: mustprogress nounwind uwtable
define linkonce_odr hidden void @_ZN8rationalD2Ev(ptr noundef nonnull align 8 dereferenceable(32) %this) unnamed_addr #5 comdat align 2 personality ptr @__gxx_personality_v0 {
entry:
  %this.addr = alloca ptr, align 8
  store ptr %this, ptr %this.addr, align 8
  %this1 = load ptr, ptr %this.addr, align 8
  %0 = load ptr, ptr @_ZN8rational13g_mpq_managerE, align 8
  %m_val = getelementptr inbounds %class.rational, ptr %this1, i32 0, i32 0
  invoke void @_ZN11mpq_managerILb1EE3delEPS0_R3mpq(ptr noundef %0, ptr noundef nonnull align 8 dereferenceable(32) %m_val)
          to label %invoke.cont unwind label %terminate.lpad

invoke.cont:                                      ; preds = %entry
  ret void

terminate.lpad:                                   ; preds = %entry
  %1 = landingpad { ptr, i32 }
          catch ptr null
  %2 = extractvalue { ptr, i32 } %1, 0
  call void @__clang_call_terminate(ptr %2) #11
  unreachable
}

; Function Attrs: mustprogress uwtable
define hidden void @_ZN13bound_manager4normER8rationalRi(ptr noundef nonnull align 8 dereferenceable(32) %n, ptr noundef nonnull align 4 dereferenceable(4) %k) #4 align 2 {
entry:
  %n.addr = alloca ptr, align 8
  %k.addr = alloca ptr, align 8
  %agg.tmp.ensured = alloca %class.rational, align 8
  %agg.tmp.ensured4 = alloca %class.rational, align 8
  store ptr %n, ptr %n.addr, align 8
  store ptr %k, ptr %k.addr, align 8
  %0 = load ptr, ptr %k.addr, align 8
  %1 = load i32, ptr %0, align 4
  switch i32 %1, label %sw.default [
    i32 2, label %sw.bb
    i32 3, label %sw.bb1
    i32 4, label %sw.bb2
    i32 5, label %sw.bb3
  ]

sw.bb:                                            ; preds = %entry
  br label %return

sw.bb1:                                           ; preds = %entry
  br label %return

sw.bb2:                                           ; preds = %entry
  %2 = load ptr, ptr %n.addr, align 8
  call void @_ZN8rationalmmEi(ptr sret(%class.rational) align 8 %agg.tmp.ensured, ptr noundef nonnull align 8 dereferenceable(32) %2, i32 noundef 0)
  call void @_ZN8rationalD2Ev(ptr noundef nonnull align 8 dereferenceable(32) %agg.tmp.ensured) #3
  %3 = load ptr, ptr %k.addr, align 8
  store i32 2, ptr %3, align 4
  br label %return

sw.bb3:                                           ; preds = %entry
  %4 = load ptr, ptr %n.addr, align 8
  call void @_ZN8rationalppEi(ptr sret(%class.rational) align 8 %agg.tmp.ensured4, ptr noundef nonnull align 8 dereferenceable(32) %4, i32 noundef 0)
  call void @_ZN8rationalD2Ev(ptr noundef nonnull align 8 dereferenceable(32) %agg.tmp.ensured4) #3
  %5 = load ptr, ptr %k.addr, align 8
  store i32 3, ptr %5, align 4
  br label %return

sw.default:                                       ; preds = %entry
  br label %return

return:                                           ; preds = %sw.default, %sw.bb3, %sw.bb2, %sw.bb1, %sw.bb
  ret void
}