; Function Attrs: mustprogress uwtable
define hidden void @_ZN13bound_manager4normER8rationalRi(ptr noundef nonnull align 8 dereferenceable(32) %n, ptr nocapture noundef nonnull align 4 dereferenceable(4) %k) local_unnamed_addr #3 align 2 personality ptr @__gxx_personality_v0 {
entry:
  %agg.tmp.ensured = alloca %class.rational, align 8
  %agg.tmp.ensured4 = alloca %class.rational, align 8
  %0 = load i32, ptr %k, align 4
  switch i32 %0, label %return [
    i32 5, label %sw.bb3
    i32 4, label %sw.bb2
  ]

sw.bb2:                                           ; preds = %entry
  call void @_ZN8rationalmmEi(ptr nonnull sret(%class.rational) align 8 %agg.tmp.ensured, ptr noundef nonnull align 8 dereferenceable(32) %n, i32 noundef 0)
  %1 = load ptr, ptr @_ZN8rational13g_mpq_managerE, align 8
  invoke void @_ZN11mpz_managerILb1EE3delEPS0_R3mpz(ptr noundef %1, ptr noundef nonnull align 8 dereferenceable(16) %agg.tmp.ensured)
          to label %.noexc.i unwind label %terminate.lpad.i

.noexc.i:                                         ; preds = %sw.bb2
  %m_den.i.i = getelementptr inbounds i8, ptr %agg.tmp.ensured, i64 16
  invoke void @_ZN11mpz_managerILb1EE3delEPS0_R3mpz(ptr noundef %1, ptr noundef nonnull align 8 dereferenceable(16) %m_den.i.i)
          to label %return.sink.split unwind label %terminate.lpad.i

terminate.lpad.i:                                 ; preds = %.noexc.i, %sw.bb2
  %2 = landingpad { ptr, i32 }
          catch ptr null
  %3 = extractvalue { ptr, i32 } %2, 0
  call void @__clang_call_terminate(ptr %3) #14
  unreachable

sw.bb3:                                           ; preds = %entry
  call void @_ZN8rationalppEi(ptr nonnull sret(%class.rational) align 8 %agg.tmp.ensured4, ptr noundef nonnull align 8 dereferenceable(32) %n, i32 noundef 0)
  %4 = load ptr, ptr @_ZN8rational13g_mpq_managerE, align 8
  invoke void @_ZN11mpz_managerILb1EE3delEPS0_R3mpz(ptr noundef %4, ptr noundef nonnull align 8 dereferenceable(16) %agg.tmp.ensured4)
          to label %.noexc.i5 unwind label %terminate.lpad.i4

.noexc.i5:                                        ; preds = %sw.bb3
  %m_den.i.i6 = getelementptr inbounds i8, ptr %agg.tmp.ensured4, i64 16
  invoke void @_ZN11mpz_managerILb1EE3delEPS0_R3mpz(ptr noundef %4, ptr noundef nonnull align 8 dereferenceable(16) %m_den.i.i6)
          to label %return.sink.split unwind label %terminate.lpad.i4

terminate.lpad.i4:                                ; preds = %.noexc.i5, %sw.bb3
  %5 = landingpad { ptr, i32 }
          catch ptr null
  %6 = extractvalue { ptr, i32 } %5, 0
  call void @__clang_call_terminate(ptr %6) #14
  unreachable

return.sink.split:                                ; preds = %.noexc.i5, %.noexc.i
  %.sink = phi i32 [ 2, %.noexc.i ], [ 3, %.noexc.i5 ]
  store i32 %.sink, ptr %k, align 4
  br label %return

return:                                           ; preds = %return.sink.split, %entry
  ret void
}